; ModuleID = 'source-C-CXX/27/475.c'
source_filename = "source-C-CXX/27/475.c"
target datalayout = "e-m:e-p270:32:32-p271:32:32-p272:64:64-i64:64-f80:128-n8:16:32:64-S128"
target triple = "x86_64-pc-linux-gnu"

@.str = private unnamed_addr constant [4 x i8] c"%d,\00", align 1
@.str.1 = private unnamed_addr constant [4 x i8] c"%d\0A\00", align 1

; Function Attrs: nounwind sspstrong uwtable
define dso_local void @main() local_unnamed_addr #0 {
  %1 = alloca [10000 x i8], align 16
  %2 = alloca [300 x i32], align 16
  %3 = getelementptr inbounds [10000 x i8], [10000 x i8]* %1, i64 0, i64 0
  call void @llvm.lifetime.start.p0i8(i64 10000, i8* nonnull %3) #5
  %4 = bitcast [300 x i32]* %2 to i8*
  call void @llvm.lifetime.start.p0i8(i64 1200, i8* nonnull %4) #5
  %5 = call i32 (i8*, ...) bitcast (i32 (...)* @gets to i32 (i8*, ...)*)(i8* nonnull %3) #5
  %6 = call i64 @strlen(i8* noundef nonnull %3) #6
  %7 = trunc i64 %6 to i32
  %8 = icmp sgt i32 %7, 0
  br i1 %8, label %9, label %43

9:                                                ; preds = %0, %32
  %10 = phi i32 [ %33, %32 ], [ 0, %0 ]
  %11 = phi i32 [ %34, %32 ], [ 0, %0 ]
  %12 = sext i32 %11 to i64
  br label %17

13:                                               ; preds = %32
  %14 = icmp sgt i32 %33, 1
  br i1 %14, label %15, label %43

15:                                               ; preds = %13
  %16 = zext i32 %33 to i64
  br label %36

17:                                               ; preds = %9, %22
  %18 = phi i64 [ %12, %9 ], [ %24, %22 ]
  %19 = phi i32 [ 0, %9 ], [ %23, %22 ]
  %20 = getelementptr inbounds [10000 x i8], [10000 x i8]* %1, i64 0, i64 %18
  %21 = load i8, i8* %20, align 1, !tbaa !5
  switch i8 %21, label %22 [
    i8 32, label %25
    i8 0, label %25
  ]

22:                                               ; preds = %17
  %23 = add nuw nsw i32 %19, 1
  %24 = add i64 %18, 1
  br label %17, !llvm.loop !8

25:                                               ; preds = %17, %17
  %26 = trunc i64 %18 to i32
  %27 = icmp eq i32 %19, 0
  br i1 %27, label %32, label %28

28:                                               ; preds = %25
  %29 = add nsw i32 %10, 1
  %30 = sext i32 %29 to i64
  %31 = getelementptr inbounds [300 x i32], [300 x i32]* %2, i64 0, i64 %30
  store i32 %19, i32* %31, align 4, !tbaa !10
  br label %32

32:                                               ; preds = %28, %25
  %33 = phi i32 [ %29, %28 ], [ %10, %25 ]
  %34 = add nsw i32 %26, 1
  %35 = icmp slt i32 %34, %7
  br i1 %35, label %9, label %13, !llvm.loop !12

36:                                               ; preds = %15, %36
  %37 = phi i64 [ 1, %15 ], [ %41, %36 ]
  %38 = getelementptr inbounds [300 x i32], [300 x i32]* %2, i64 0, i64 %37
  %39 = load i32, i32* %38, align 4, !tbaa !10
  %40 = call i32 (i8*, ...) @printf(i8* nonnull dereferenceable(1) getelementptr inbounds ([4 x i8], [4 x i8]* @.str, i64 0, i64 0), i32 %39)
  %41 = add nuw nsw i64 %37, 1
  %42 = icmp eq i64 %41, %16
  br i1 %42, label %43, label %36, !llvm.loop !13

43:                                               ; preds = %36, %0, %13
  %44 = phi i32 [ %33, %13 ], [ 0, %0 ], [ %33, %36 ]
  %45 = sext i32 %44 to i64
  %46 = getelementptr inbounds [300 x i32], [300 x i32]* %2, i64 0, i64 %45
  %47 = load i32, i32* %46, align 4, !tbaa !10
  %48 = call i32 (i8*, ...) @printf(i8* nonnull dereferenceable(1) getelementptr inbounds ([4 x i8], [4 x i8]* @.str.1, i64 0, i64 0), i32 %47)
  call void @llvm.lifetime.end.p0i8(i64 1200, i8* nonnull %4) #5
  call void @llvm.lifetime.end.p0i8(i64 10000, i8* nonnull %3) #5
  ret void
}

; Function Attrs: argmemonly mustprogress nofree nosync nounwind willreturn
declare void @llvm.lifetime.start.p0i8(i64 immarg, i8* nocapture) #1

declare i32 @gets(...) local_unnamed_addr #2

; Function Attrs: argmemonly mustprogress nofree nounwind readonly willreturn
declare i64 @strlen(i8* nocapture) local_unnamed_addr #3

; Function Attrs: argmemonly mustprogress nofree nosync nounwind willreturn
declare void @llvm.lifetime.end.p0i8(i64 immarg, i8* nocapture) #1

; Function Attrs: nofree nounwind
declare noundef i32 @printf(i8* nocapture noundef readonly, ...) local_unnamed_addr #4


!llvm.module.flags = !{!0, !1, !2, !3}
!llvm.ident = !{!4}

!0 = !{i32 1, !"wchar_size", i32 4}
!1 = !{i32 7, !"PIC Level", i32 2}
!2 = !{i32 7, !"PIE Level", i32 2}
!3 = !{i32 7, !"uwtable", i32 1}
!4 = !{!"clang version 13.0.0"}
!5 = !{!6, !6, i64 0}
!6 = !{!"omnipotent char", !7, i64 0}
!7 = !{!"Simple C/C++ TBAA"}
!8 = distinct !{!8, !9}
!9 = !{!"llvm.loop.mustprogress"}
!10 = !{!11, !11, i64 0}
!11 = !{!"int", !6, i64 0}
!12 = distinct !{!12, !9}
!13 = distinct !{!13, !9}
